target datalayout = "e-m:e-p270:32:32-p271:32:32-p272:64:64-i64:64-i128:128-f80:128-n8:16:32:64-S128"
target triple = "x86_64-pc-linux-gnu"

@stderr = external global ptr, align 8
@.str.138 = private unnamed_addr constant [18 x i8] c"Invalid job_id %s\00", align 1
@.str.139 = private unnamed_addr constant [4 x i8] c" %s\00", align 1

; Function Attrs: inlinehint nounwind willreturn memory(read) uwtable
define available_externally i32 @atoi(ptr noundef nonnull %0) #7 {
  %2 = alloca ptr, align 8
  store ptr %0, ptr %2, align 8
  %3 = load ptr, ptr %2, align 8
  %4 = call i64 @strtol(ptr noundef %3, ptr noundef null, i32 noundef 10) #8
  %5 = trunc i64 %4 to i32
  ret i32 %5
}

; Function Attrs: nounwind uwtable
define dso_local i32 @scontrol_job_notify(i32 noundef %0, ptr noundef %1) #0 {
  %3 = alloca i32, align 4
  %4 = alloca i32, align 4
  %5 = alloca ptr, align 8
  %6 = alloca i32, align 4
  %7 = alloca i32, align 4
  %8 = alloca ptr, align 8
  %9 = alloca i32, align 4
  store i32 %0, ptr %4, align 4
  store ptr %1, ptr %5, align 8
  call void @llvm.lifetime.start.p0(i64 4, ptr %6) #8
  call void @llvm.lifetime.start.p0(i64 4, ptr %7) #8
  call void @llvm.lifetime.start.p0(i64 8, ptr %8) #8
  store ptr null, ptr %8, align 8
  %10 = load ptr, ptr %5, align 8
  %11 = getelementptr inbounds ptr, ptr %10, i64 0
  %12 = load ptr, ptr %11, align 8
  %13 = call i32 @atoi(ptr noundef %12) #10
  store i32 %13, ptr %7, align 4
  %14 = load i32, ptr %7, align 4
  %15 = icmp ule i32 %14, 0
  br i1 %15, label %16, label %22

16:                                               ; preds = %2
  %17 = load ptr, ptr @stderr, align 8
  %18 = load ptr, ptr %5, align 8
  %19 = getelementptr inbounds ptr, ptr %18, i64 0
  %20 = load ptr, ptr %19, align 8
  %21 = call i32 (ptr, ptr, ...) @fprintf(ptr noundef %17, ptr noundef @.str.138, ptr noundef %20) #8
  store i32 1, ptr %3, align 4
  store i32 1, ptr %9, align 4
  br label %56

22:                                               ; preds = %2
  store i32 1, ptr %6, align 4
  br label %23

23:                                               ; preds = %43, %22
  %24 = load i32, ptr %6, align 4
  %25 = load i32, ptr %4, align 4
  %26 = icmp slt i32 %24, %25
  br i1 %26, label %27, label %46

27:                                               ; preds = %23
  %28 = load ptr, ptr %8, align 8
  %29 = icmp ne ptr %28, null
  br i1 %29, label %30, label %36

30:                                               ; preds = %27
  %31 = load ptr, ptr %5, align 8
  %32 = load i32, ptr %6, align 4
  %33 = sext i32 %32 to i64
  %34 = getelementptr inbounds ptr, ptr %31, i64 %33
  %35 = load ptr, ptr %34, align 8
  call void (ptr, ptr, ...) @_xstrfmtcat(ptr noundef %8, ptr noundef @.str.139, ptr noundef %35)
  br label %42

36:                                               ; preds = %27
  %37 = load ptr, ptr %5, align 8
  %38 = load i32, ptr %6, align 4
  %39 = sext i32 %38 to i64
  %40 = getelementptr inbounds ptr, ptr %37, i64 %39
  %41 = load ptr, ptr %40, align 8
  call void @_xstrcat(ptr noundef %8, ptr noundef %41)
  br label %42

42:                                               ; preds = %36, %30
  br label %43

43:                                               ; preds = %42
  %44 = load i32, ptr %6, align 4
  %45 = add nsw i32 %44, 1
  store i32 %45, ptr %6, align 4
  br label %23, !llvm.loop !29

46:                                               ; preds = %23
  %47 = load i32, ptr %7, align 4
  %48 = load ptr, ptr %8, align 8
  %49 = call i32 @slurm_notify_job(i32 noundef %47, ptr noundef %48)
  store i32 %49, ptr %6, align 4
  call void @slurm_xfree(ptr noundef %8)
  %50 = load i32, ptr %6, align 4
  %51 = icmp ne i32 %50, 0
  br i1 %51, label %52, label %55

52:                                               ; preds = %46
  %53 = call ptr @__errno_location() #9
  %54 = load i32, ptr %53, align 4
  store i32 %54, ptr %3, align 4
  store i32 1, ptr %9, align 4
  br label %56

55:                                               ; preds = %46
  store i32 0, ptr %3, align 4
  store i32 1, ptr %9, align 4
  br label %56

56:                                               ; preds = %55, %52, %16
  call void @llvm.lifetime.end.p0(i64 8, ptr %8) #8
  call void @llvm.lifetime.end.p0(i64 4, ptr %7) #8
  call void @llvm.lifetime.end.p0(i64 4, ptr %6) #8
  %57 = load i32, ptr %3, align 4
  ret i32 %57
}