; Function Attrs: nounwind uwtable
define dso_local i32 @scontrol_job_notify(i32 noundef %0, ptr noundef readonly captures(none) %1) local_unnamed_addr #0 {
  %3 = alloca ptr, align 8
  call void @llvm.lifetime.start.p0(i64 8, ptr nonnull %3) #13
  store ptr null, ptr %3, align 8
  %4 = load ptr, ptr %1, align 8
  %5 = tail call i64 @strtol(ptr noundef nonnull captures(none) %4, ptr noundef null, i32 noundef 10) #13
  %6 = trunc i64 %5 to i32
  %7 = icmp eq i32 %6, 0
  br i1 %7, label %9, label %.preheader

.preheader:                                       ; preds = %2
  %8 = icmp sgt i32 %0, 1
  br i1 %8, label %.lr.ph.preheader, label %._crit_edge

.lr.ph.preheader:                                 ; preds = %.preheader
  %wide.trip.count = zext nneg i32 %0 to i64
  br label %.lr.ph

9:                                                ; preds = %2
  %10 = load ptr, ptr @stderr, align 8
  %11 = tail call i32 (ptr, ptr, ...) @fprintf(ptr noundef %10, ptr noundef nonnull @.str.138, ptr noundef nonnull %4) #15
  br label %23

.lr.ph:                                           ; preds = %.lr.ph.preheader, %17
  %indvars.iv = phi i64 [ 1, %.lr.ph.preheader ], [ %indvars.iv.next, %17 ]
  %12 = load ptr, ptr %3, align 8
  %.not14 = icmp eq ptr %12, null
  %13 = getelementptr inbounds nuw ptr, ptr %1, i64 %indvars.iv
  %14 = load ptr, ptr %13, align 8
  br i1 %.not14, label %16, label %15

15:                                               ; preds = %.lr.ph
  call void (ptr, ptr, ...) @_xstrfmtcat(ptr noundef nonnull %3, ptr noundef nonnull @.str.139, ptr noundef %14) #13
  br label %17

16:                                               ; preds = %.lr.ph
  call void @_xstrcat(ptr noundef nonnull %3, ptr noundef %14) #13
  br label %17

17:                                               ; preds = %15, %16
  %indvars.iv.next = add nuw nsw i64 %indvars.iv, 1
  %exitcond.not = icmp eq i64 %indvars.iv.next, %wide.trip.count
  br i1 %exitcond.not, label %._crit_edge.loopexit, label %.lr.ph, !llvm.loop !27

._crit_edge.loopexit:                             ; preds = %17
  %.pre = load ptr, ptr %3, align 8
  br label %._crit_edge

._crit_edge:                                      ; preds = %._crit_edge.loopexit, %.preheader
  %18 = phi ptr [ %.pre, %._crit_edge.loopexit ], [ null, %.preheader ]
  %19 = call i32 @slurm_notify_job(i32 noundef %6, ptr noundef %18) #13
  call void @slurm_xfree(ptr noundef nonnull %3) #13
  %.not = icmp eq i32 %19, 0
  br i1 %.not, label %23, label %20

20:                                               ; preds = %._crit_edge
  %21 = tail call ptr @__errno_location() #14
  %22 = load i32, ptr %21, align 4
  br label %23

23:                                               ; preds = %._crit_edge, %20, %9
  %.0 = phi i32 [ 1, %9 ], [ %22, %20 ], [ 0, %._crit_edge ]
  call void @llvm.lifetime.end.p0(i64 8, ptr nonnull %3) #13
  ret i32 %.0
}